; Function Attrs: nounwind uwtable
define i32 @zend_execute_script(i32 noundef %0, ptr noundef %1, ptr noundef %2) local_unnamed_addr #0 {
  %4 = load ptr, ptr @zend_compile_file, align 8
  %5 = tail call ptr %4(ptr noundef %2, i32 noundef %0) #30
  %6 = getelementptr inbounds i8, ptr %2, i64 48
  %7 = load ptr, ptr %6, align 8
  %.not = icmp eq ptr %7, null
  br i1 %.not, label %10, label %8

8:                                                ; preds = %3
  %9 = tail call ptr @zend_hash_add_empty_element(ptr noundef nonnull getelementptr inbounds (%struct._zend_executor_globals, ptr @executor_globals, i64 0, i32 6), ptr noundef nonnull %7) #30
  br label %10

10:                                               ; preds = %8, %3
  %.not15 = icmp eq ptr %5, null
  br i1 %.not15, label %19, label %11

11:                                               ; preds = %10
  tail call void @zend_execute(ptr noundef nonnull %5, ptr noundef %1) #30
  tail call void @zend_exception_restore() #30
  %12 = load ptr, ptr getelementptr inbounds (%struct._zend_executor_globals, ptr @executor_globals, i64 0, i32 50), align 8
  %.not16 = icmp eq ptr %12, null
  br i1 %.not16, label %18, label %13

13:                                               ; preds = %11
  %14 = load i8, ptr getelementptr inbounds (%struct._zend_executor_globals, ptr @executor_globals, i64 0, i32 38, i32 1), align 8
  %.not17 = icmp eq i8 %14, 0
  br i1 %.not17, label %.thread, label %15

15:                                               ; preds = %13
  tail call void @zend_user_exception_handler()
  %.pr = load ptr, ptr getelementptr inbounds (%struct._zend_executor_globals, ptr @executor_globals, i64 0, i32 50), align 8
  %.not18 = icmp eq ptr %.pr, null
  br i1 %.not18, label %18, label %.thread

.thread:                                          ; preds = %13, %15
  %16 = phi ptr [ %.pr, %15 ], [ %12, %13 ]
  %17 = tail call i32 @zend_exception_error(ptr noundef nonnull %16, i32 noundef 1) #30
  br label %18

18:                                               ; preds = %15, %.thread, %11
  %.0 = phi i32 [ %17, %.thread ], [ 0, %15 ], [ 0, %11 ]
  tail call void @zend_destroy_static_vars(ptr noundef nonnull %5) #30
  tail call void @destroy_op_array(ptr noundef nonnull %5) #30
  tail call void @_efree_256(ptr noundef nonnull %5) #30
  br label %21

19:                                               ; preds = %10
  %20 = icmp eq i32 %0, 8
  %spec.select = sext i1 %20 to i32
  br label %21

21:                                               ; preds = %19, %18
  %.1 = phi i32 [ %.0, %18 ], [ %spec.select, %19 ]
  ret i32 %.1
}